target datalayout = "e-m:e-p270:32:32-p271:32:32-p272:64:64-i64:64-i128:128-f80:128-n8:16:32:64-S128"
target triple = "x86_64-pc-linux-gnu"

%"class.arrow::Status" = type { ptr }

@.str.19 = private unnamed_addr constant [28 x i8] c"Error writing bytes to file\00", align 1

; Function Attrs: mustprogress nounwind uwtable
define linkonce_odr void @_ZN5arrow6StatusC2Ev(ptr noundef nonnull align 8 dereferenceable(8) %0) unnamed_addr #6 comdat align 2 {
  %2 = alloca ptr, align 8
  store ptr %0, ptr %2, align 8, !tbaa !43
  %3 = load ptr, ptr %2, align 8
  %4 = getelementptr inbounds nuw %"class.arrow::Status", ptr %3, i32 0, i32 0
  store ptr null, ptr %4, align 8, !tbaa !69
  ret void
}

; Function Attrs: mustprogress nounwind uwtable
define linkonce_odr void @_ZN5arrow6Status2OKEv(ptr dead_on_unwind noalias writable sret(%"class.arrow::Status") align 8 %0) #6 comdat align 2 {
  %2 = alloca ptr, align 8
  store ptr %0, ptr %2, align 8
  call void @_ZN5arrow6StatusC2Ev(ptr noundef nonnull align 8 dereferenceable(8) %0) #3
  ret void
}

; Function Attrs: mustprogress uwtable
define linkonce_odr void @_ZN5arrow8internal16IOErrorFromErrnoIJRA28_KcEEENS_6StatusEiDpOT_(ptr dead_on_unwind noalias writable sret(%"class.arrow::Status") align 8 %0, i32 noundef %1, ptr noundef nonnull align 1 dereferenceable(28) %2) #4 comdat {
  %4 = alloca ptr, align 8
  %5 = alloca i32, align 4
  %6 = alloca ptr, align 8
  store ptr %0, ptr %4, align 8
  store i32 %1, ptr %5, align 4, !tbaa !3
  store ptr %2, ptr %6, align 8, !tbaa !12
  %7 = load i32, ptr %5, align 4, !tbaa !3
  %8 = load ptr, ptr %6, align 8, !tbaa !12
  call void @_ZN5arrow8internal15StatusFromErrnoIJRA28_KcEEENS_6StatusEiNS_10StatusCodeEDpOT_(ptr dead_on_unwind writable sret(%"class.arrow::Status") align 8 %0, i32 noundef %7, i8 noundef signext 5, ptr noundef nonnull align 1 dereferenceable(28) %8)
  ret void
}

; Function Attrs: mustprogress uwtable
define void @_ZN5arrow8internal12FileTruncateEil(ptr dead_on_unwind noalias writable sret(%"class.arrow::Status") align 8 %0, i32 noundef %1, i64 noundef %2) #4 {
  %4 = alloca ptr, align 8
  %5 = alloca i32, align 4
  %6 = alloca i64, align 8
  %7 = alloca i32, align 4
  %8 = alloca i32, align 4
  %9 = alloca i32, align 4
  store ptr %0, ptr %4, align 8
  store i32 %1, ptr %5, align 4, !tbaa !3
  store i64 %2, ptr %6, align 8, !tbaa !62
  call void @llvm.lifetime.start.p0(i64 4, ptr %7) #3
  call void @llvm.lifetime.start.p0(i64 4, ptr %8) #3
  %10 = load i32, ptr %5, align 4, !tbaa !3
  %11 = load i64, ptr %6, align 8, !tbaa !62
  %12 = call i32 @ftruncate64(i32 noundef %10, i64 noundef %11) #3
  store i32 %12, ptr %7, align 4, !tbaa !3
  %13 = call ptr @__errno_location() #28
  %14 = load i32, ptr %13, align 4, !tbaa !3
  store i32 %14, ptr %8, align 4, !tbaa !3
  %15 = load i32, ptr %7, align 4, !tbaa !3
  %16 = icmp eq i32 %15, -1
  br i1 %16, label %17, label %19

17:                                               ; preds = %3
  %18 = load i32, ptr %8, align 4, !tbaa !3
  call void @_ZN5arrow8internal16IOErrorFromErrnoIJRA28_KcEEENS_6StatusEiDpOT_(ptr dead_on_unwind writable sret(%"class.arrow::Status") align 8 %0, i32 noundef %18, ptr noundef nonnull align 1 dereferenceable(28) @.str.19)
  store i32 1, ptr %9, align 4
  br label %20

19:                                               ; preds = %3
  call void @_ZN5arrow6Status2OKEv(ptr dead_on_unwind writable sret(%"class.arrow::Status") align 8 %0)
  store i32 1, ptr %9, align 4
  br label %20

20:                                               ; preds = %19, %17
  call void @llvm.lifetime.end.p0(i64 4, ptr %8) #3
  call void @llvm.lifetime.end.p0(i64 4, ptr %7) #3
  ret void
}