; Function Attrs: mustprogress uwtable
define void @_ZN5arrow8internal12FileTruncateEil(ptr dead_on_unwind noalias writable sret(%"class.arrow::Status") align 8 %0, i32 noundef %1, i64 noundef %2) local_unnamed_addr #3 {
  %4 = tail call i32 @ftruncate64(i32 noundef %1, i64 noundef %2) #38
  %5 = icmp eq i32 %4, -1
  br i1 %5, label %6, label %9

6:                                                ; preds = %3
  %7 = tail call ptr @__errno_location() #42
  %8 = load i32, ptr %7, align 4, !tbaa !38
  tail call void @_ZN5arrow8internal15StatusFromErrnoIJRA28_KcEEENS_6StatusEiNS_10StatusCodeEDpOT_(ptr dead_on_unwind writable sret(%"class.arrow::Status") align 8 %0, i32 noundef %8, i8 noundef signext 5, ptr noundef nonnull align 1 dereferenceable(28) @.str.19)
  br label %10

9:                                                ; preds = %3
  store ptr null, ptr %0, align 8, !tbaa !89, !alias.scope !504
  br label %10

10:                                               ; preds = %9, %6
  ret void
}